libpcrecpp.so.0 libpcrecpp0v5 #MINVER#
 _ZN7pcrecpp2RE4InitEPKcPKNS_10RE_OptionsE@Base 7.7
 _ZN7pcrecpp2RE4InitERKNSt7__cxx1112basic_stringIcSt11char_traitsIcESaIcEEEPKNS_10RE_OptionsE@Base 7.7
 _ZN7pcrecpp2RE6no_argE@Base 7.7
 _ZN7pcrecpp2RE7CleanupEv@Base 7.7
 _ZN7pcrecpp2RE7CompileENS0_6AnchorE@Base 7.7
 _ZN7pcrecpp2RE9QuoteMetaB5cxx11ERKNS_11StringPieceE@Base 7.7
 _ZN7pcrecpp2RED1Ev@Base 7.7
 _ZN7pcrecpp2RED2Ev@Base 7.7
 _ZN7pcrecpp3Arg10parse_charEPKciPv@Base 7.7
 _ZN7pcrecpp3Arg10parse_longEPKciPv@Base 7.7
 _ZN7pcrecpp3Arg10parse_nullEPKciPv@Base 7.7
 _ZN7pcrecpp3Arg10parse_uintEPKciPv@Base 7.7
 _ZN7pcrecpp3Arg11parse_floatEPKciPv@Base 7.7
 _ZN7pcrecpp3Arg11parse_shortEPKciPv@Base 7.7
 _ZN7pcrecpp3Arg11parse_ucharEPKciPv@Base 7.7
 _ZN7pcrecpp3Arg11parse_ulongEPKciPv@Base 7.7
 _ZN7pcrecpp3Arg12parse_doubleEPKciPv@Base 7.7
 _ZN7pcrecpp3Arg12parse_stringEPKciPv@Base 7.7
 _ZN7pcrecpp3Arg12parse_ushortEPKciPv@Base 7.7
 _ZN7pcrecpp3Arg13parse_int_hexEPKciPv@Base 7.7
 _ZN7pcrecpp3Arg14parse_long_hexEPKciPv@Base 7.7
 _ZN7pcrecpp3Arg14parse_longlongEPKciPv@Base 7.7
 _ZN7pcrecpp3Arg14parse_uint_hexEPKciPv@Base 7.7
 _ZN7pcrecpp3Arg15parse_int_octalEPKciPv@Base 7.7
 _ZN7pcrecpp3Arg15parse_int_radixEPKciPvi@Base 7.7
 _ZN7pcrecpp3Arg15parse_short_hexEPKciPv@Base 7.7
 _ZN7pcrecpp3Arg15parse_ulong_hexEPKciPv@Base 7.7
 _ZN7pcrecpp3Arg15parse_ulonglongEPKciPv@Base 7.7
 _ZN7pcrecpp3Arg16parse_int_cradixEPKciPv@Base 7.7
 _ZN7pcrecpp3Arg16parse_long_octalEPKciPv@Base 7.7
 _ZN7pcrecpp3Arg16parse_long_radixEPKciPvi@Base 7.7
 _ZN7pcrecpp3Arg16parse_uint_octalEPKciPv@Base 7.7
 _ZN7pcrecpp3Arg16parse_uint_radixEPKciPvi@Base 7.7
 _ZN7pcrecpp3Arg16parse_ushort_hexEPKciPv@Base 7.7
 _ZN7pcrecpp3Arg17parse_long_cradixEPKciPv@Base 7.7
 _ZN7pcrecpp3Arg17parse_short_octalEPKciPv@Base 7.7
 _ZN7pcrecpp3Arg17parse_short_radixEPKciPvi@Base 7.7
 _ZN7pcrecpp3Arg17parse_stringpieceEPKciPv@Base 7.7
 _ZN7pcrecpp3Arg17parse_uint_cradixEPKciPv@Base 7.7
 _ZN7pcrecpp3Arg17parse_ulong_octalEPKciPv@Base 7.7
 _ZN7pcrecpp3Arg17parse_ulong_radixEPKciPvi@Base 7.7
 _ZN7pcrecpp3Arg18parse_longlong_hexEPKciPv@Base 7.7
 _ZN7pcrecpp3Arg18parse_short_cradixEPKciPv@Base 7.7
 _ZN7pcrecpp3Arg18parse_ulong_cradixEPKciPv@Base 7.7
 _ZN7pcrecpp3Arg18parse_ushort_octalEPKciPv@Base 7.7
 _ZN7pcrecpp3Arg18parse_ushort_radixEPKciPvi@Base 7.7
 _ZN7pcrecpp3Arg19parse_ulonglong_hexEPKciPv@Base 7.7
 _ZN7pcrecpp3Arg19parse_ushort_cradixEPKciPv@Base 7.7
 _ZN7pcrecpp3Arg20parse_longlong_octalEPKciPv@Base 7.7
 _ZN7pcrecpp3Arg20parse_longlong_radixEPKciPvi@Base 7.7
 _ZN7pcrecpp3Arg21parse_longlong_cradixEPKciPv@Base 7.7
 _ZN7pcrecpp3Arg21parse_ulonglong_octalEPKciPv@Base 7.7
 _ZN7pcrecpp3Arg21parse_ulonglong_radixEPKciPvi@Base 7.7
 _ZN7pcrecpp3Arg22parse_ulonglong_cradixEPKciPv@Base 7.7
 _ZN7pcrecpp3Arg9parse_intEPKciPv@Base 7.7
 _ZN7pcrecpp7Scanner10EnableSkipEv@Base 7.7
 _ZN7pcrecpp7Scanner11ConsumeSkipEv@Base 7.7
 _ZN7pcrecpp7Scanner11DisableSkipEv@Base 7.7
 _ZN7pcrecpp7Scanner11GetCommentsEiiPSt6vectorINS_11StringPieceESaIS2_EE@Base 7.7
 _ZN7pcrecpp7Scanner15GetNextCommentsEPSt6vectorINS_11StringPieceESaIS2_EE@Base 7.7
 _ZN7pcrecpp7Scanner17SetSkipExpressionEPKc@Base 7.7
 _ZN7pcrecpp7Scanner4SkipEPKc@Base 7.7
 _ZN7pcrecpp7Scanner7ConsumeERKNS_2REERKNS_3ArgES6_S6_@Base 7.7
 _ZN7pcrecpp7ScannerC1ERKNSt7__cxx1112basic_stringIcSt11char_traitsIcESaIcEEE@Base 7.7
 _ZN7pcrecpp7ScannerC1Ev@Base 7.7
 _ZN7pcrecpp7ScannerC2ERKNSt7__cxx1112basic_stringIcSt11char_traitsIcESaIcEEE@Base 7.7
 _ZN7pcrecpp7ScannerC2Ev@Base 7.7
 _ZN7pcrecpp7ScannerD1Ev@Base 7.7
 _ZN7pcrecpp7ScannerD2Ev@Base 7.7
 _ZNK7pcrecpp2RE11DoMatchImplERKNS_11StringPieceENS0_6AnchorEPiPKPKNS_3ArgEiS5_i@Base 7.7
 _ZNK7pcrecpp2RE12PartialMatchERKNS_11StringPieceERKNS_3ArgES6_S6_S6_S6_S6_S6_S6_S6_S6_S6_S6_S6_S6_S6_S6_@Base 7.7
 _ZNK7pcrecpp2RE13GlobalReplaceERKNS_11StringPieceEPNSt7__cxx1112basic_stringIcSt11char_traitsIcESaIcEEE@Base 7.7
 _ZNK7pcrecpp2RE14FindAndConsumeEPNS_11StringPieceERKNS_3ArgES5_S5_S5_S5_S5_S5_S5_S5_S5_S5_S5_S5_S5_S5_S5_@Base 7.7
 _ZNK7pcrecpp2RE23NumberOfCapturingGroupsEv@Base 7.7
 _ZNK7pcrecpp2RE7ConsumeEPNS_11StringPieceERKNS_3ArgES5_S5_S5_S5_S5_S5_S5_S5_S5_S5_S5_S5_S5_S5_S5_@Base 7.7
 _ZNK7pcrecpp2RE7DoMatchERKNS_11StringPieceENS0_6AnchorEPiPKPKNS_3ArgEi@Base 7.7
 _ZNK7pcrecpp2RE7ExtractERKNS_11StringPieceES3_PNSt7__cxx1112basic_stringIcSt11char_traitsIcESaIcEEE@Base 7.7
 _ZNK7pcrecpp2RE7ReplaceERKNS_11StringPieceEPNSt7__cxx1112basic_stringIcSt11char_traitsIcESaIcEEE@Base 7.7
 _ZNK7pcrecpp2RE7RewriteEPNSt7__cxx1112basic_stringIcSt11char_traitsIcESaIcEEERKNS_11StringPieceESA_Pii@Base 7.7
 _ZNK7pcrecpp2RE8TryMatchERKNS_11StringPieceEiNS0_6AnchorEbPii@Base 7.7
 _ZNK7pcrecpp2RE9FullMatchERKNS_11StringPieceERKNS_3ArgES6_S6_S6_S6_S6_S6_S6_S6_S6_S6_S6_S6_S6_S6_S6_@Base 7.7
 _ZNK7pcrecpp7Scanner10LineNumberEv@Base 7.7
 _ZNK7pcrecpp7Scanner6OffsetEv@Base 7.7
 _ZNK7pcrecpp7Scanner9LookingAtERKNS_2REE@Base 7.7
 _ZNSt6vectorIN7pcrecpp11StringPieceESaIS1_EE17_M_realloc_insertIJRKS1_EEEvN9__gnu_cxx17__normal_iteratorIPS1_S3_EEDpOT_@Base 2:8.39-4
 _ZNSt6vectorIN7pcrecpp11StringPieceESaIS1_EE17_M_realloc_insertIJS1_EEEvN9__gnu_cxx17__normal_iteratorIPS1_S3_EEDpOT_@Base 2:8.39-9
 _ZlsRSoRKN7pcrecpp11StringPieceE@Base 8.38
