libre2.so.3 libre2-3 #MINVER#
 _ZN3re211FilteredRE214PrintPrefilterEi@Base 20131024+dfsg
 _ZN3re211FilteredRE219RegexpsGivenStringsERKSt6vectorIiSaIiEEPS3_@Base 20131024+dfsg
 _ZN3re211FilteredRE23AddERKNS_11StringPieceERKNS_3RE27OptionsEPi@Base 20131024+dfsg
 _ZN3re211FilteredRE27CompileEPSt6vectorINSt7__cxx1112basic_stringIcSt11char_traitsIcESaIcEEESaIS7_EE@Base 20150701+dfsg
 _ZN3re211FilteredRE2C1Ei@Base 20161101+dfsg
 _ZN3re211FilteredRE2C1Ev@Base 20131024+dfsg
 _ZN3re211FilteredRE2C2Ei@Base 20161101+dfsg
 _ZN3re211FilteredRE2C2Ev@Base 20131024+dfsg
 _ZN3re211FilteredRE2D1Ev@Base 20131024+dfsg
 _ZN3re211FilteredRE2D2Ev@Base 20131024+dfsg
 _ZN3re211StringPiece4nposE@Base 0+hg23
 _ZN3re23RE210FullMatchNERKNS_11StringPieceERKS0_PKPKNS0_3ArgEi@Base 0+hg23
 _ZN3re23RE211MaxSubmatchERKNS_11StringPieceE@Base 20131024+dfsg
 _ZN3re23RE213GlobalReplaceEPNSt7__cxx1112basic_stringIcSt11char_traitsIcESaIcEEERKS0_RKNS_11StringPieceE@Base 20150701+dfsg
 _ZN3re23RE213PartialMatchNERKNS_11StringPieceERKS0_PKPKNS0_3ArgEi@Base 0+hg23
 _ZN3re23RE215FindAndConsumeNEPNS_11StringPieceERKS0_PKPKNS0_3ArgEi@Base 0+hg23
 _ZN3re23RE23Arg10parse_charEPKcjPv@Base 20160901
 _ZN3re23RE23Arg10parse_longEPKcjPv@Base 20160901
 _ZN3re23RE23Arg10parse_nullEPKcjPv@Base 20160901
 _ZN3re23RE23Arg10parse_uintEPKcjPv@Base 20160901
 _ZN3re23RE23Arg11parse_floatEPKcjPv@Base 20160901
 _ZN3re23RE23Arg11parse_scharEPKcjPv@Base 20160801
 _ZN3re23RE23Arg11parse_shortEPKcjPv@Base 20160901
 _ZN3re23RE23Arg11parse_ucharEPKcjPv@Base 20160901
 _ZN3re23RE23Arg11parse_ulongEPKcjPv@Base 20160901
 _ZN3re23RE23Arg12parse_doubleEPKcjPv@Base 20160901
 _ZN3re23RE23Arg12parse_stringEPKcjPv@Base 20160901
 _ZN3re23RE23Arg12parse_ushortEPKcjPv@Base 20160901
 _ZN3re23RE23Arg13parse_int_hexEPKcjPv@Base 20160901
 _ZN3re23RE23Arg14parse_long_hexEPKcjPv@Base 20160901
 _ZN3re23RE23Arg14parse_longlongEPKcjPv@Base 20160901
 _ZN3re23RE23Arg14parse_uint_hexEPKcjPv@Base 20160901
 _ZN3re23RE23Arg15parse_int_octalEPKcjPv@Base 20160901
 _ZN3re23RE23Arg15parse_int_radixEPKcjPvi@Base 20160901
 _ZN3re23RE23Arg15parse_short_hexEPKcjPv@Base 20160901
 _ZN3re23RE23Arg15parse_ulong_hexEPKcjPv@Base 20160901
 _ZN3re23RE23Arg15parse_ulonglongEPKcjPv@Base 20160901
 _ZN3re23RE23Arg16parse_int_cradixEPKcjPv@Base 20160901
 _ZN3re23RE23Arg16parse_long_octalEPKcjPv@Base 20160901
 _ZN3re23RE23Arg16parse_long_radixEPKcjPvi@Base 20160901
 _ZN3re23RE23Arg16parse_uint_octalEPKcjPv@Base 20160901
 _ZN3re23RE23Arg16parse_uint_radixEPKcjPvi@Base 20160901
 _ZN3re23RE23Arg16parse_ushort_hexEPKcjPv@Base 20160901
 _ZN3re23RE23Arg17parse_long_cradixEPKcjPv@Base 20160901
 _ZN3re23RE23Arg17parse_short_octalEPKcjPv@Base 20160901
 _ZN3re23RE23Arg17parse_short_radixEPKcjPvi@Base 20160901
 _ZN3re23RE23Arg17parse_stringpieceEPKcjPv@Base 20160901
 _ZN3re23RE23Arg17parse_uint_cradixEPKcjPv@Base 20160901
 _ZN3re23RE23Arg17parse_ulong_octalEPKcjPv@Base 20160901
 _ZN3re23RE23Arg17parse_ulong_radixEPKcjPvi@Base 20160901
 _ZN3re23RE23Arg18parse_longlong_hexEPKcjPv@Base 20160901
 _ZN3re23RE23Arg18parse_short_cradixEPKcjPv@Base 20160901
 _ZN3re23RE23Arg18parse_ulong_cradixEPKcjPv@Base 20160901
 _ZN3re23RE23Arg18parse_ushort_octalEPKcjPv@Base 20160901
 _ZN3re23RE23Arg18parse_ushort_radixEPKcjPvi@Base 20160901
 _ZN3re23RE23Arg19parse_ulonglong_hexEPKcjPv@Base 20160901
 _ZN3re23RE23Arg19parse_ushort_cradixEPKcjPv@Base 20160901
 _ZN3re23RE23Arg20parse_longlong_octalEPKcjPv@Base 20160901
 _ZN3re23RE23Arg20parse_longlong_radixEPKcjPvi@Base 20160901
 _ZN3re23RE23Arg21parse_longlong_cradixEPKcjPv@Base 20160901
 _ZN3re23RE23Arg21parse_ulonglong_octalEPKcjPv@Base 20160901
 _ZN3re23RE23Arg21parse_ulonglong_radixEPKcjPvi@Base 20160901
 _ZN3re23RE23Arg22parse_ulonglong_cradixEPKcjPv@Base 20160901
 _ZN3re23RE23Arg9parse_intEPKcjPv@Base 20160901
 _ZN3re23RE23Set3AddERKNS_11StringPieceEPNSt7__cxx1112basic_stringIcSt11char_traitsIcESaIcEEE@Base 20150701+dfsg
 _ZN3re23RE23Set7CompileEv@Base 20131024+dfsg
 _ZN3re23RE23SetC1ERKNS0_7OptionsENS0_6AnchorE@Base 20131024+dfsg
 _ZN3re23RE23SetC2ERKNS0_7OptionsENS0_6AnchorE@Base 20131024+dfsg
 _ZN3re23RE23SetD1Ev@Base 20131024+dfsg
 _ZN3re23RE23SetD2Ev@Base 20131024+dfsg
 _ZN3re23RE24InitERKNS_11StringPieceERKNS0_7OptionsE@Base 0+hg23
 _ZN3re23RE27ExtractERKNS_11StringPieceERKS0_S3_PNSt7__cxx1112basic_stringIcSt11char_traitsIcESaIcEEE@Base 20150701+dfsg
 _ZN3re23RE27Options14kDefaultMaxMemE@Base 0+hg23
 _ZN3re23RE27OptionsC1ENS0_13CannedOptionsE@Base 20131024+dfsg
 _ZN3re23RE27OptionsC2ENS0_13CannedOptionsE@Base 20131024+dfsg
 _ZN3re23RE27ReplaceEPNSt7__cxx1112basic_stringIcSt11char_traitsIcESaIcEEERKS0_RKNS_11StringPieceE@Base 20150701+dfsg
 _ZN3re23RE28ConsumeNEPNS_11StringPieceERKS0_PKPKNS0_3ArgEi@Base 0+hg23
 _ZN3re23RE29QuoteMetaB5cxx11ERKNS_11StringPieceE@Base 20150701+dfsg
 _ZN3re23RE2C1EPKc@Base 0+hg23
 _ZN3re23RE2C1ERKNS_11StringPieceE@Base 0+hg23
 _ZN3re23RE2C1ERKNS_11StringPieceERKNS0_7OptionsE@Base 0+hg23
 _ZN3re23RE2C1ERKNSt7__cxx1112basic_stringIcSt11char_traitsIcESaIcEEE@Base 20150701+dfsg
 _ZN3re23RE2C2EPKc@Base 0+hg23
 _ZN3re23RE2C2ERKNS_11StringPieceE@Base 0+hg23
 _ZN3re23RE2C2ERKNS_11StringPieceERKNS0_7OptionsE@Base 0+hg23
 _ZN3re23RE2C2ERKNSt7__cxx1112basic_stringIcSt11char_traitsIcESaIcEEE@Base 20150701+dfsg
 _ZN3re23RE2D1Ev@Base 0+hg23
 _ZN3re23RE2D2Ev@Base 0+hg23
 _ZNK3re211FilteredRE210AllMatchesERKNS_11StringPieceERKSt6vectorIiSaIiEEPS6_@Base 20131024+dfsg
 _ZNK3re211FilteredRE210FirstMatchERKNS_11StringPieceERKSt6vectorIiSaIiEE@Base 20131024+dfsg
 _ZNK3re211FilteredRE213AllPotentialsERKSt6vectorIiSaIiEEPS3_@Base 20150701+dfsg
 _ZNK3re211FilteredRE214SlowFirstMatchERKNS_11StringPieceE@Base 20131024+dfsg
 _ZNK3re211StringPiece4copyEPcjj@Base 0+hg23
 _ZNK3re211StringPiece4findERKS0_j@Base 0+hg23
 _ZNK3re211StringPiece4findEcj@Base 0+hg23
 _ZNK3re211StringPiece5rfindERKS0_j@Base 0+hg23
 _ZNK3re211StringPiece5rfindEcj@Base 0+hg23
 _ZNK3re211StringPiece6substrEjj@Base 0+hg23
 _ZNK3re23RE211ProgramSizeEv@Base 0+hg23
 _ZNK3re23RE211ReverseProgEv@Base 0+hg23
 _ZNK3re23RE213ProgramFanoutEPSt3mapIiiSt4lessIiESaISt4pairIKiiEEE@Base 20150701+dfsg
 _ZNK3re23RE218CheckRewriteStringERKNS_11StringPieceEPNSt7__cxx1112basic_stringIcSt11char_traitsIcESaIcEEE@Base 20150701+dfsg
 _ZNK3re23RE218PossibleMatchRangeEPNSt7__cxx1112basic_stringIcSt11char_traitsIcESaIcEEES7_i@Base 20150701+dfsg
 _ZNK3re23RE219CapturingGroupNamesB5cxx11Ev@Base 20150701+dfsg
 _ZNK3re23RE220NamedCapturingGroupsB5cxx11Ev@Base 20150701+dfsg
 _ZNK3re23RE223NumberOfCapturingGroupsEv@Base 0+hg23
 _ZNK3re23RE23Set5MatchERKNS_11StringPieceEPSt6vectorIiSaIiEE@Base 20131024+dfsg
 _ZNK3re23RE25MatchERKNS_11StringPieceEjjNS0_6AnchorEPS1_i@Base 20160901
 _ZNK3re23RE27DoMatchERKNS_11StringPieceENS0_6AnchorEPjPKPKNS0_3ArgEi@Base 20160901
 _ZNK3re23RE27Options10ParseFlagsEv@Base 20131024+dfsg
 _ZNK3re23RE27RewriteEPNSt7__cxx1112basic_stringIcSt11char_traitsIcESaIcEEERKNS_11StringPieceEPS9_i@Base 20150701+dfsg
 _ZlsRSoRKN3re211StringPieceE@Base 0+hg23
